; Function Attrs: mustprogress uwtable
define void @_ZN5faiss15IndexBinaryHashC2Eii(ptr noundef nonnull align 8 dereferenceable(96) %0, i32 noundef %1, i32 noundef %2) unnamed_addr #2 align 2 {
  %4 = sext i32 %1 to i64
  tail call void @_ZN5faiss11IndexBinaryC2ElNS_10MetricTypeE(ptr noundef nonnull align 8 dereferenceable(32) %0, i64 noundef %4, i32 noundef 1)
  store ptr getelementptr inbounds ({ [16 x ptr] }, ptr @_ZTVN5faiss15IndexBinaryHashE, i64 0, i32 0, i64 2), ptr %0, align 8
  %5 = getelementptr inbounds i8, ptr %0, i64 32
  %6 = getelementptr inbounds i8, ptr %0, i64 80
  store ptr %6, ptr %5, align 8
  %7 = getelementptr inbounds i8, ptr %0, i64 40
  store i64 1, ptr %7, align 8
  %8 = getelementptr inbounds i8, ptr %0, i64 48
  %9 = getelementptr inbounds i8, ptr %0, i64 64
  tail call void @llvm.memset.p0.i64(ptr noundef nonnull align 8 dereferenceable(16) %8, i8 0, i64 16, i1 false)
  store float 1.000000e+00, ptr %9, align 8
  %10 = getelementptr inbounds i8, ptr %0, i64 72
  tail call void @llvm.memset.p0.i64(ptr noundef nonnull align 8 dereferenceable(16) %10, i8 0, i64 16, i1 false)
  %11 = getelementptr inbounds i8, ptr %0, i64 88
  store i32 %2, ptr %11, align 8
  %12 = getelementptr inbounds i8, ptr %0, i64 92
  store i32 0, ptr %12, align 4
  %13 = getelementptr inbounds i8, ptr %0, i64 25
  store i8 1, ptr %13, align 1
  ret void
}